ARM GAS  C:\Users\Malth\AppData\Local\Temp\ccziPdSl.s 			page 1


   1              		.syntax unified
   2              		.cpu cortex-m3
   3              		.fpu softvfp
   4              		.eabi_attribute 20, 1
   5              		.eabi_attribute 21, 1
   6              		.eabi_attribute 23, 3
   7              		.eabi_attribute 24, 1
   8              		.eabi_attribute 25, 1
   9              		.eabi_attribute 26, 1
  10              		.eabi_attribute 30, 1
  11              		.eabi_attribute 34, 1
  12              		.eabi_attribute 18, 4
  13              		.thumb
  14              		.syntax unified
  15              		.file	"main.c"
  16              		.text
  17              	.Ltext0:
  18              		.cfi_sections	.debug_frame
  19              		.section	.text.ISR_UART_rx_handler,"ax",%progbits
  20              		.align	2
  21              		.global	ISR_UART_rx_handler
  22              		.thumb
  23              		.thumb_func
  24              		.type	ISR_UART_rx_handler, %function
  25              	ISR_UART_rx_handler:
  26              	.LFB65:
  27              		.file 1 "main.c"
   1:main.c        **** /* ========================================
   2:main.c        ****  *
   3:main.c        ****  * Copyright YOUR COMPANY, THE YEAR
   4:main.c        ****  * All Rights Reserved
   5:main.c        ****  * UNPUBLISHED, LICENSED SOFTWARE.
   6:main.c        ****  *
   7:main.c        ****  * CONFIDENTIAL AND PROPRIETARY INFORMATION
   8:main.c        ****  * WHICH IS THE PROPERTY OF your company.
   9:main.c        ****  *
  10:main.c        ****  * ========================================
  11:main.c        **** */
  12:main.c        **** #include "project.h"
  13:main.c        **** #include "stdio.h"
  14:main.c        **** #define SAMPLES_PER_SECOND 3
  15:main.c        **** 
  16:main.c        **** static uint16_t sampleWaitTimeInMilliseconds = 1000 / SAMPLES_PER_SECOND;
  17:main.c        **** 
  18:main.c        **** CY_ISR_PROTO(ISR_UART_rx_handler);
  19:main.c        **** void handleByteReceived(uint8_t byteReceived);
  20:main.c        **** void Read2Bytes(uint8_t addr, uint8_t data[], uint8_t address);
  21:main.c        **** float getTemp(uint8_t address);
  22:main.c        **** 
  23:main.c        **** char outputBuffer[256];
  24:main.c        **** 
  25:main.c        **** 
  26:main.c        **** int main(void)
  27:main.c        **** {
  28:main.c        ****     CyGlobalIntEnable; /* Enable global interrupts. */
  29:main.c        **** 
  30:main.c        ****     /* Place your initialization/startup code here (e.g. MyInst_Start()) */
ARM GAS  C:\Users\Malth\AppData\Local\Temp\ccziPdSl.s 			page 2


  31:main.c        ****     isr_uart_rx_StartEx(ISR_UART_rx_handler);   
  32:main.c        ****     UART_1_Start();
  33:main.c        ****     I2C_Start();
  34:main.c        ****     float temp = -1;
  35:main.c        ****     
  36:main.c        ****     for(;;)
  37:main.c        ****     {
  38:main.c        ****         //first LM75
  39:main.c        ****         temp = getTemp(0x48);
  40:main.c        ****         snprintf(outputBuffer, sizeof(outputBuffer), "Temp in first LM75: %f \r\n", temp);
  41:main.c        ****         UART_1_PutString(outputBuffer);
  42:main.c        ****         
  43:main.c        ****         CyDelay(20);
  44:main.c        ****         
  45:main.c        ****         
  46:main.c        ****         //second LM75
  47:main.c        ****         temp = getTemp(0x49);
  48:main.c        ****         snprintf(outputBuffer, sizeof(outputBuffer), "Temp in second LM75: %f \r\n\n", temp);
  49:main.c        ****         UART_1_PutString(outputBuffer);
  50:main.c        ****         CyDelay(1000);
  51:main.c        ****     }
  52:main.c        **** }
  53:main.c        **** 
  54:main.c        **** CY_ISR(ISR_UART_rx_handler)
  55:main.c        **** {
  28              		.loc 1 55 0
  29              		.cfi_startproc
  30              		@ args = 0, pretend = 0, frame = 0
  31              		@ frame_needed = 0, uses_anonymous_args = 0
  32 0000 10B5     		push	{r4, lr}
  33              		.cfi_def_cfa_offset 8
  34              		.cfi_offset 4, -8
  35              		.cfi_offset 14, -4
  56:main.c        ****     uint8_t bytesToRead = UART_1_GetRxBufferSize();
  36              		.loc 1 56 0
  37 0002 FFF7FEFF 		bl	UART_1_GetRxBufferSize
  38              	.LVL0:
  39 0006 0446     		mov	r4, r0
  40              	.LVL1:
  57:main.c        ****     while (bytesToRead > 0)
  41              		.loc 1 57 0
  42 0008 05E0     		b	.L2
  43              	.L3:
  44              	.LBB2:
  58:main.c        ****     {
  59:main.c        ****         uint8_t byteReceived = UART_1_ReadRxData();
  45              		.loc 1 59 0
  46 000a FFF7FEFF 		bl	UART_1_ReadRxData
  47              	.LVL2:
  60:main.c        ****         UART_1_WriteTxData(byteReceived); // echo back
  48              		.loc 1 60 0
  49 000e FFF7FEFF 		bl	UART_1_WriteTxData
  50              	.LVL3:
  61:main.c        ****         
  62:main.c        ****         handleByteReceived(byteReceived);
  63:main.c        ****         
  64:main.c        ****         bytesToRead--;
ARM GAS  C:\Users\Malth\AppData\Local\Temp\ccziPdSl.s 			page 3


  51              		.loc 1 64 0
  52 0012 013C     		subs	r4, r4, #1
  53              	.LVL4:
  54 0014 E4B2     		uxtb	r4, r4
  55              	.LVL5:
  56              	.L2:
  57              	.LBE2:
  57:main.c        ****     {
  58              		.loc 1 57 0
  59 0016 002C     		cmp	r4, #0
  60 0018 F7D1     		bne	.L3
  65:main.c        ****     }
  66:main.c        **** }
  61              		.loc 1 66 0
  62 001a 10BD     		pop	{r4, pc}
  63              		.cfi_endproc
  64              	.LFE65:
  65              		.size	ISR_UART_rx_handler, .-ISR_UART_rx_handler
  66              		.global	__aeabi_f2d
  67              		.section	.text.main,"ax",%progbits
  68              		.align	2
  69              		.global	main
  70              		.thumb
  71              		.thumb_func
  72              		.type	main, %function
  73              	main:
  74              	.LFB64:
  27:main.c        ****     CyGlobalIntEnable; /* Enable global interrupts. */
  75              		.loc 1 27 0
  76              		.cfi_startproc
  77              		@ args = 0, pretend = 0, frame = 0
  78              		@ frame_needed = 0, uses_anonymous_args = 0
  79 0000 10B5     		push	{r4, lr}
  80              		.cfi_def_cfa_offset 8
  81              		.cfi_offset 4, -8
  82              		.cfi_offset 14, -4
  83 0002 82B0     		sub	sp, sp, #8
  84              		.cfi_def_cfa_offset 16
  28:main.c        **** 
  85              		.loc 1 28 0
  86              		.syntax unified
  87              	@ 28 "main.c" 1
  88 0004 62B6     		CPSIE   i
  89              	@ 0 "" 2
  31:main.c        ****     UART_1_Start();
  90              		.loc 1 31 0
  91              		.thumb
  92              		.syntax unified
  93 0006 1848     		ldr	r0, .L8
  94 0008 FFF7FEFF 		bl	isr_uart_rx_StartEx
  95              	.LVL6:
  32:main.c        ****     I2C_Start();
  96              		.loc 1 32 0
  97 000c FFF7FEFF 		bl	UART_1_Start
  98              	.LVL7:
  33:main.c        ****     float temp = -1;
  99              		.loc 1 33 0
ARM GAS  C:\Users\Malth\AppData\Local\Temp\ccziPdSl.s 			page 4


 100 0010 FFF7FEFF 		bl	I2C_Start
 101              	.LVL8:
 102              	.L6:
  39:main.c        ****         snprintf(outputBuffer, sizeof(outputBuffer), "Temp in first LM75: %f \r\n", temp);
 103              		.loc 1 39 0 discriminator 1
 104 0014 4820     		movs	r0, #72
 105 0016 FFF7FEFF 		bl	getTemp
 106              	.LVL9:
  40:main.c        ****         UART_1_PutString(outputBuffer);
 107              		.loc 1 40 0 discriminator 1
 108 001a 144C     		ldr	r4, .L8+4
 109 001c FFF7FEFF 		bl	__aeabi_f2d
 110              	.LVL10:
 111 0020 CDE90001 		strd	r0, [sp]
 112 0024 124A     		ldr	r2, .L8+8
 113 0026 4FF48071 		mov	r1, #256
 114 002a 2046     		mov	r0, r4
 115 002c FFF7FEFF 		bl	snprintf
 116              	.LVL11:
  41:main.c        ****         
 117              		.loc 1 41 0 discriminator 1
 118 0030 2046     		mov	r0, r4
 119 0032 FFF7FEFF 		bl	UART_1_PutString
 120              	.LVL12:
  43:main.c        ****         
 121              		.loc 1 43 0 discriminator 1
 122 0036 1420     		movs	r0, #20
 123 0038 FFF7FEFF 		bl	CyDelay
 124              	.LVL13:
  47:main.c        ****         snprintf(outputBuffer, sizeof(outputBuffer), "Temp in second LM75: %f \r\n\n", temp);
 125              		.loc 1 47 0 discriminator 1
 126 003c 4920     		movs	r0, #73
 127 003e FFF7FEFF 		bl	getTemp
 128              	.LVL14:
  48:main.c        ****         UART_1_PutString(outputBuffer);
 129              		.loc 1 48 0 discriminator 1
 130 0042 FFF7FEFF 		bl	__aeabi_f2d
 131              	.LVL15:
 132 0046 CDE90001 		strd	r0, [sp]
 133 004a 0A4A     		ldr	r2, .L8+12
 134 004c 4FF48071 		mov	r1, #256
 135 0050 2046     		mov	r0, r4
 136 0052 FFF7FEFF 		bl	snprintf
 137              	.LVL16:
  49:main.c        ****         CyDelay(1000);
 138              		.loc 1 49 0 discriminator 1
 139 0056 2046     		mov	r0, r4
 140 0058 FFF7FEFF 		bl	UART_1_PutString
 141              	.LVL17:
  50:main.c        ****     }
 142              		.loc 1 50 0 discriminator 1
 143 005c 4FF47A70 		mov	r0, #1000
 144 0060 FFF7FEFF 		bl	CyDelay
 145              	.LVL18:
 146 0064 D6E7     		b	.L6
 147              	.L9:
 148 0066 00BF     		.align	2
ARM GAS  C:\Users\Malth\AppData\Local\Temp\ccziPdSl.s 			page 5


 149              	.L8:
 150 0068 00000000 		.word	ISR_UART_rx_handler
 151 006c 00000000 		.word	outputBuffer
 152 0070 00000000 		.word	.LC0
 153 0074 1C000000 		.word	.LC1
 154              		.cfi_endproc
 155              	.LFE64:
 156              		.size	main, .-main
 157              		.section	.text.handleByteReceived,"ax",%progbits
 158              		.align	2
 159              		.global	handleByteReceived
 160              		.thumb
 161              		.thumb_func
 162              		.type	handleByteReceived, %function
 163              	handleByteReceived:
 164              	.LFB66:
  67:main.c        **** void handleByteReceived(uint8_t byteReceived)
  68:main.c        **** {
 165              		.loc 1 68 0
 166              		.cfi_startproc
 167              		@ args = 0, pretend = 0, frame = 0
 168              		@ frame_needed = 0, uses_anonymous_args = 0
 169              		@ link register save eliminated.
 170              	.LVL19:
 171 0000 7047     		bx	lr
 172              		.cfi_endproc
 173              	.LFE66:
 174              		.size	handleByteReceived, .-handleByteReceived
 175              		.comm	outputBuffer,256,4
 176 0002 00BF     		.section	.rodata.str1.4,"aMS",%progbits,1
 177              		.align	2
 178              	.LC0:
 179 0000 54656D70 		.ascii	"Temp in first LM75: %f \015\012\000"
 179      20696E20 
 179      66697273 
 179      74204C4D 
 179      37353A20 
 180 001a 0000     		.space	2
 181              	.LC1:
 182 001c 54656D70 		.ascii	"Temp in second LM75: %f \015\012\012\000"
 182      20696E20 
 182      7365636F 
 182      6E64204C 
 182      4D37353A 
 183              		.text
 184              	.Letext0:
 185              		.file 2 "c:\\program files (x86)\\cypress\\psoc creator\\4.2\\psoc creator\\import\\gnu\\arm\\5.4.
 186              		.file 3 "c:\\program files (x86)\\cypress\\psoc creator\\4.2\\psoc creator\\import\\gnu\\arm\\5.4.
 187              		.file 4 "Generated_Source\\PSoC5/core_cm3.h"
 188              		.file 5 "Generated_Source\\PSoC5/UART_1.h"
 189              		.file 6 "Generated_Source\\PSoC5/isr_uart_rx.h"
 190              		.file 7 "Generated_Source\\PSoC5/I2C.h"
 191              		.file 8 "c:\\program files (x86)\\cypress\\psoc creator\\4.2\\psoc creator\\import\\gnu\\arm\\5.4.
 192              		.file 9 "Generated_Source\\PSoC5/CyLib.h"