ARM GAS  C:\Users\Malth\AppData\Local\Temp\ccnQZEev.s 			page 1


   1              		.syntax unified
   2              		.cpu cortex-m3
   3              		.fpu softvfp
   4              		.eabi_attribute 20, 1
   5              		.eabi_attribute 21, 1
   6              		.eabi_attribute 23, 3
   7              		.eabi_attribute 24, 1
   8              		.eabi_attribute 25, 1
   9              		.eabi_attribute 26, 1
  10              		.eabi_attribute 30, 1
  11              		.eabi_attribute 34, 1
  12              		.eabi_attribute 18, 4
  13              		.thumb
  14              		.syntax unified
  15              		.file	"sensor.c"
  16              		.text
  17              	.Ltext0:
  18              		.cfi_sections	.debug_frame
  19              		.section	.text.Read2Bytes,"ax",%progbits
  20              		.align	2
  21              		.global	Read2Bytes
  22              		.thumb
  23              		.thumb_func
  24              		.type	Read2Bytes, %function
  25              	Read2Bytes:
  26              	.LFB64:
  27              		.file 1 "sensor.c"
   1:sensor.c      **** /* ========================================
   2:sensor.c      ****  *
   3:sensor.c      ****  * Copyright YOUR COMPANY, THE YEAR
   4:sensor.c      ****  * All Rights Reserved
   5:sensor.c      ****  * UNPUBLISHED, LICENSED SOFTWARE.
   6:sensor.c      ****  *
   7:sensor.c      ****  * CONFIDENTIAL AND PROPRIETARY INFORMATION
   8:sensor.c      ****  * WHICH IS THE PROPERTY OF your company.
   9:sensor.c      ****  *
  10:sensor.c      ****  * ========================================
  11:sensor.c      **** */
  12:sensor.c      **** 
  13:sensor.c      **** #include "project.h"
  14:sensor.c      **** #include "stdio.h"
  15:sensor.c      **** 
  16:sensor.c      **** uint8_t responseData[0] ;
  17:sensor.c      **** 
  18:sensor.c      **** void Read2Bytes(uint8_t data[], uint8_t address)
  19:sensor.c      **** {
  28              		.loc 1 19 0
  29              		.cfi_startproc
  30              		@ args = 0, pretend = 0, frame = 0
  31              		@ frame_needed = 0, uses_anonymous_args = 0
  32              	.LVL0:
  33 0000 38B5     		push	{r3, r4, r5, lr}
  34              		.cfi_def_cfa_offset 16
  35              		.cfi_offset 3, -16
  36              		.cfi_offset 4, -12
  37              		.cfi_offset 5, -8
  38              		.cfi_offset 14, -4
ARM GAS  C:\Users\Malth\AppData\Local\Temp\ccnQZEev.s 			page 2


  39 0002 0546     		mov	r5, r0
  40 0004 0C46     		mov	r4, r1
  20:sensor.c      ****     //I2C Communication
  21:sensor.c      ****     uint8_t response;
  22:sensor.c      ****     I2C_MasterClearStatus();
  41              		.loc 1 22 0
  42 0006 FFF7FEFF 		bl	I2C_MasterClearStatus
  43              	.LVL1:
  23:sensor.c      ****     //I2C Start
  24:sensor.c      ****     response = I2C_MasterSendStart(address, 1) ;
  44              		.loc 1 24 0
  45 000a 0121     		movs	r1, #1
  46 000c 2046     		mov	r0, r4
  47 000e FFF7FEFF 		bl	I2C_MasterSendStart
  48              	.LVL2:
  25:sensor.c      ****     if (I2C_MSTR_NO_ERROR == response) {   
  49              		.loc 1 25 0
  50 0012 50B9     		cbnz	r0, .L2
  26:sensor.c      ****         data[0] = I2C_MasterReadByte(I2C_ACK_DATA); // Integer
  51              		.loc 1 26 0
  52 0014 0120     		movs	r0, #1
  53              	.LVL3:
  54 0016 FFF7FEFF 		bl	I2C_MasterReadByte
  55              	.LVL4:
  56 001a 2870     		strb	r0, [r5]
  27:sensor.c      ****         data[1] = I2C_MasterReadByte(I2C_NAK_DATA); // Fraction
  57              		.loc 1 27 0
  58 001c 0020     		movs	r0, #0
  59 001e FFF7FEFF 		bl	I2C_MasterReadByte
  60              	.LVL5:
  61 0022 6870     		strb	r0, [r5, #1]
  28:sensor.c      ****         I2C_MasterSendStop();
  62              		.loc 1 28 0
  63 0024 FFF7FEFF 		bl	I2C_MasterSendStop
  64              	.LVL6:
  65 0028 38BD     		pop	{r3, r4, r5, pc}
  66              	.LVL7:
  67              	.L2:
  29:sensor.c      ****     }
  30:sensor.c      ****         else
  31:sensor.c      ****     {
  32:sensor.c      ****         // error
  33:sensor.c      ****         UART_1_PutString("Error in fetching temp from LM75");
  68              		.loc 1 33 0
  69 002a 0348     		ldr	r0, .L5
  70              	.LVL8:
  71 002c FFF7FEFF 		bl	UART_1_PutString
  72              	.LVL9:
  34:sensor.c      ****         UART_1_PutString("\r\n");        
  73              		.loc 1 34 0
  74 0030 0248     		ldr	r0, .L5+4
  75 0032 FFF7FEFF 		bl	UART_1_PutString
  76              	.LVL10:
  77 0036 38BD     		pop	{r3, r4, r5, pc}
  78              	.LVL11:
  79              	.L6:
  80              		.align	2
ARM GAS  C:\Users\Malth\AppData\Local\Temp\ccnQZEev.s 			page 3


  81              	.L5:
  82 0038 00000000 		.word	.LC0
  83 003c 24000000 		.word	.LC1
  84              		.cfi_endproc
  85              	.LFE64:
  86              		.size	Read2Bytes, .-Read2Bytes
  87              		.global	__aeabi_i2f
  88              		.global	__aeabi_fmul
  89              		.section	.text.getTemp,"ax",%progbits
  90              		.align	2
  91              		.global	getTemp
  92              		.thumb
  93              		.thumb_func
  94              		.type	getTemp, %function
  95              	getTemp:
  96              	.LFB65:
  35:sensor.c      ****     }    
  36:sensor.c      ****     //I2C Stop 
  37:sensor.c      **** }
  38:sensor.c      **** float getTemp(uint8_t address){
  97              		.loc 1 38 0
  98              		.cfi_startproc
  99              		@ args = 0, pretend = 0, frame = 0
 100              		@ frame_needed = 0, uses_anonymous_args = 0
 101              	.LVL12:
 102 0000 10B5     		push	{r4, lr}
 103              		.cfi_def_cfa_offset 8
 104              		.cfi_offset 4, -8
 105              		.cfi_offset 14, -4
  39:sensor.c      ****     Read2Bytes(responseData, address); // reads from I2C
 106              		.loc 1 39 0
 107 0002 084C     		ldr	r4, .L9
 108 0004 0146     		mov	r1, r0
 109 0006 2046     		mov	r0, r4
 110              	.LVL13:
 111 0008 FFF7FEFF 		bl	Read2Bytes
 112              	.LVL14:
  40:sensor.c      ****     float combinedValues  = (float)(((responseData[0] << 8) | responseData[1]) >> 5) * 0.125;
 113              		.loc 1 40 0
 114 000c 2078     		ldrb	r0, [r4]	@ zero_extendqisi2
 115 000e 6378     		ldrb	r3, [r4, #1]	@ zero_extendqisi2
 116 0010 43EA0020 		orr	r0, r3, r0, lsl #8
 117 0014 4011     		asrs	r0, r0, #5
 118 0016 FFF7FEFF 		bl	__aeabi_i2f
 119              	.LVL15:
 120 001a 4FF07851 		mov	r1, #1040187392
 121 001e FFF7FEFF 		bl	__aeabi_fmul
 122              	.LVL16:
  41:sensor.c      ****     return combinedValues;
  42:sensor.c      **** }
 123              		.loc 1 42 0
 124 0022 10BD     		pop	{r4, pc}
 125              	.L10:
 126              		.align	2
 127              	.L9:
 128 0024 00000000 		.word	responseData
 129              		.cfi_endproc
ARM GAS  C:\Users\Malth\AppData\Local\Temp\ccnQZEev.s 			page 4


 130              	.LFE65:
 131              		.size	getTemp, .-getTemp
 132              		.comm	responseData,0,4
 133              		.section	.rodata.str1.4,"aMS",%progbits,1
 134              		.align	2
 135              	.LC0:
 136 0000 4572726F 		.ascii	"Error in fetching temp from LM75\000"
 136      7220696E 
 136      20666574 
 136      6368696E 
 136      67207465 
 137 0021 000000   		.space	3
 138              	.LC1:
 139 0024 0D0A00   		.ascii	"\015\012\000"
 140              		.text
 141              	.Letext0:
 142              		.file 2 "c:\\program files (x86)\\cypress\\psoc creator\\4.2\\psoc creator\\import\\gnu\\arm\\5.4.
 143              		.file 3 "c:\\program files (x86)\\cypress\\psoc creator\\4.2\\psoc creator\\import\\gnu\\arm\\5.4.
 144              		.file 4 "Generated_Source\\PSoC5/core_cm3.h"
 145              		.file 5 "Generated_Source\\PSoC5/I2C.h"
 146              		.file 6 "Generated_Source\\PSoC5/UART_1.h"